; Function Attrs: mustprogress uwtable
define noundef nonnull align 8 dereferenceable(24) ptr @_ZNK8facebook5velox6memory14MemoryPoolImpl11sizeClassesEv(ptr nocapture noundef nonnull readonly align 8 dereferenceable(480) %this) unnamed_addr #0 align 2 {
entry:
  %allocator_ = getelementptr inbounds i8, ptr %this, i64 176
  %0 = load ptr, ptr %allocator_, align 8
  %vtable = load ptr, ptr %0, align 8
  %vfn = getelementptr inbounds i8, ptr %vtable, i64 88
  %1 = load ptr, ptr %vfn, align 8
  %call = tail call noundef nonnull align 8 dereferenceable(24) ptr %1(ptr noundef nonnull align 8 dereferenceable(880) %0)
  ret ptr %call
}